target datalayout = "e-m:e-p270:32:32-p271:32:32-p272:64:64-i64:64-i128:128-f80:128-n8:16:32:64-S128"
target triple = "x86_64-pc-linux-gnu"

%struct.pmix_pointer_array_t = type { %struct.pmix_object_t, i32, i32, i32, i32, i32, ptr, ptr }
%struct.pmix_object_t = type { %union.pthread_mutex_t, ptr, i32, %struct.pmix_tma }
%union.pthread_mutex_t = type { %struct.__pthread_mutex_s }
%struct.__pthread_mutex_s = type { i32, i32, i32, i32, i32, i16, i16, %struct.__pthread_internal_list }
%struct.__pthread_internal_list = type { ptr, ptr }
%struct.pmix_tma = type { ptr, ptr, ptr, ptr, ptr, ptr, ptr, ptr }
%struct.pmix_proc = type { [256 x i8], i32 }
%struct.pmix_list_t = type { %struct.pmix_object_t, %struct.pmix_list_item_t, i64 }
%struct.pmix_list_item_t = type { %struct.pmix_object_t, ptr, ptr, i32 }
%struct.timeval = type { i64, i64 }
%struct.pmix_server_globals_t = type { i8, i32, i32, %struct.pmix_pointer_array_t, %struct.pmix_pointer_array_t, i32, i8, %struct.pmix_proc, %struct.pmix_list_t, i8, i8, i8, i8, i8, %struct.pmix_proc, i8, ptr, ptr, i64, %struct.pmix_list_t, %struct.pmix_list_t, %struct.pmix_list_t }
%struct.pmix_server_req_t = type { %struct.pmix_object_t, %struct.event, i8, %struct.event, i8, i8, i8, ptr, ptr, ptr, i32, i32, i32, i32, i32, i8, i8, i8, i8, i32, i32, i32, i8, i32, ptr, i64, ptr, i64, i8, %struct.pmix_proc, %struct.pmix_proc, %struct.pmix_proc, ptr, %struct.pmix_data_buffer, ptr, ptr, ptr, ptr, ptr, ptr, ptr, ptr, ptr }
%struct.event = type { %struct.event_callback, %union.anon.0, i32, ptr, %union.anon.2, i16, i16, %struct.timeval }
%struct.event_callback = type { %struct.anon, i16, i8, i8, %union.anon, ptr }
%struct.anon = type { ptr, ptr }
%union.anon = type { ptr }
%union.anon.0 = type { %struct.anon.1 }
%struct.anon.1 = type { ptr, ptr }
%union.anon.2 = type { %struct.anon.3 }
%struct.anon.3 = type { %struct.anon.4, %struct.timeval }
%struct.anon.4 = type { ptr, ptr }
%struct.pmix_data_buffer = type { ptr, ptr, ptr, i64, i64 }

@prte_name_invalid = external global %struct.pmix_proc, align 4

; Function Attrs: nounwind uwtable
define internal void @rqcon(ptr noundef %0) #0 {
  %2 = alloca ptr, align 8
  store ptr %0, ptr %2, align 8, !tbaa !36
  %3 = load ptr, ptr %2, align 8, !tbaa !36
  %4 = getelementptr inbounds nuw %struct.pmix_server_req_t, ptr %3, i32 0, i32 2
  store i8 0, ptr %4, align 8, !tbaa !50
  %5 = load ptr, ptr %2, align 8, !tbaa !36
  %6 = getelementptr inbounds nuw %struct.pmix_server_req_t, ptr %5, i32 0, i32 4
  store i8 0, ptr %6, align 8, !tbaa !53
  %7 = load ptr, ptr %2, align 8, !tbaa !36
  %8 = getelementptr inbounds nuw %struct.pmix_server_req_t, ptr %7, i32 0, i32 5
  store i8 0, ptr %8, align 1, !tbaa !54
  %9 = load ptr, ptr %2, align 8, !tbaa !36
  %10 = getelementptr inbounds nuw %struct.pmix_server_req_t, ptr %9, i32 0, i32 6
  store i8 0, ptr %10, align 2, !tbaa !195
  %11 = load ptr, ptr %2, align 8, !tbaa !36
  %12 = getelementptr inbounds nuw %struct.pmix_server_req_t, ptr %11, i32 0, i32 7
  store ptr null, ptr %12, align 8, !tbaa !196
  %13 = load ptr, ptr %2, align 8, !tbaa !36
  %14 = getelementptr inbounds nuw %struct.pmix_server_req_t, ptr %13, i32 0, i32 8
  store ptr null, ptr %14, align 8, !tbaa !197
  %15 = load ptr, ptr %2, align 8, !tbaa !36
  %16 = getelementptr inbounds nuw %struct.pmix_server_req_t, ptr %15, i32 0, i32 9
  store ptr null, ptr %16, align 8, !tbaa !136
  %17 = load ptr, ptr %2, align 8, !tbaa !36
  %18 = getelementptr inbounds nuw %struct.pmix_server_req_t, ptr %17, i32 0, i32 15
  store i8 1, ptr %18, align 4, !tbaa !198
  %19 = load ptr, ptr %2, align 8, !tbaa !36
  %20 = getelementptr inbounds nuw %struct.pmix_server_req_t, ptr %19, i32 0, i32 16
  store i8 0, ptr %20, align 1, !tbaa !199
  %21 = load ptr, ptr %2, align 8, !tbaa !36
  %22 = getelementptr inbounds nuw %struct.pmix_server_req_t, ptr %21, i32 0, i32 17
  store i8 0, ptr %22, align 2, !tbaa !200
  %23 = load ptr, ptr %2, align 8, !tbaa !36
  %24 = getelementptr inbounds nuw %struct.pmix_server_req_t, ptr %23, i32 0, i32 18
  store i8 0, ptr %24, align 1, !tbaa !168
  %25 = load ptr, ptr %2, align 8, !tbaa !36
  %26 = getelementptr inbounds nuw %struct.pmix_server_req_t, ptr %25, i32 0, i32 13
  store i32 -1, ptr %26, align 4, !tbaa !138
  %27 = load ptr, ptr %2, align 8, !tbaa !36
  %28 = getelementptr inbounds nuw %struct.pmix_server_req_t, ptr %27, i32 0, i32 14
  store i32 -1, ptr %28, align 8, !tbaa !137
  %29 = load ptr, ptr %2, align 8, !tbaa !36
  %30 = getelementptr inbounds nuw %struct.pmix_server_req_t, ptr %29, i32 0, i32 19
  store i32 0, ptr %30, align 8, !tbaa !201
  %31 = load ptr, ptr %2, align 8, !tbaa !36
  %32 = getelementptr inbounds nuw %struct.pmix_server_req_t, ptr %31, i32 0, i32 20
  store i32 0, ptr %32, align 4, !tbaa !202
  %33 = load ptr, ptr %2, align 8, !tbaa !36
  %34 = getelementptr inbounds nuw %struct.pmix_server_req_t, ptr %33, i32 0, i32 21
  store i32 0, ptr %34, align 8, !tbaa !203
  %35 = load ptr, ptr %2, align 8, !tbaa !36
  %36 = getelementptr inbounds nuw %struct.pmix_server_req_t, ptr %35, i32 0, i32 22
  store i8 0, ptr %36, align 4, !tbaa !204
  %37 = load ptr, ptr %2, align 8, !tbaa !36
  %38 = getelementptr inbounds nuw %struct.pmix_server_req_t, ptr %37, i32 0, i32 23
  store i32 -1, ptr %38, align 8, !tbaa !205
  %39 = load ptr, ptr %2, align 8, !tbaa !36
  %40 = getelementptr inbounds nuw %struct.pmix_server_req_t, ptr %39, i32 0, i32 24
  store ptr null, ptr %40, align 8, !tbaa !134
  %41 = load ptr, ptr %2, align 8, !tbaa !36
  %42 = getelementptr inbounds nuw %struct.pmix_server_req_t, ptr %41, i32 0, i32 25
  store i64 0, ptr %42, align 8, !tbaa !135
  %43 = load ptr, ptr %2, align 8, !tbaa !36
  %44 = getelementptr inbounds nuw %struct.pmix_server_req_t, ptr %43, i32 0, i32 26
  store ptr null, ptr %44, align 8, !tbaa !206
  %45 = load ptr, ptr %2, align 8, !tbaa !36
  %46 = getelementptr inbounds nuw %struct.pmix_server_req_t, ptr %45, i32 0, i32 27
  store i64 0, ptr %46, align 8, !tbaa !207
  %47 = load ptr, ptr %2, align 8, !tbaa !36
  %48 = getelementptr inbounds nuw %struct.pmix_server_req_t, ptr %47, i32 0, i32 28
  store i8 4, ptr %48, align 8, !tbaa !208
  %49 = load ptr, ptr %2, align 8, !tbaa !36
  %50 = getelementptr inbounds nuw %struct.pmix_server_req_t, ptr %49, i32 0, i32 29
  call void @llvm.memcpy.p0.p0.i64(ptr align 4 %50, ptr align 4 @prte_name_invalid, i64 260, i1 false), !tbaa.struct !73
  %51 = load ptr, ptr %2, align 8, !tbaa !36
  %52 = getelementptr inbounds nuw %struct.pmix_server_req_t, ptr %51, i32 0, i32 30
  call void @llvm.memcpy.p0.p0.i64(ptr align 8 %52, ptr align 4 @prte_name_invalid, i64 260, i1 false), !tbaa.struct !73
  %53 = load ptr, ptr %2, align 8, !tbaa !36
  %54 = getelementptr inbounds nuw %struct.pmix_server_req_t, ptr %53, i32 0, i32 32
  store ptr null, ptr %54, align 8, !tbaa !209
  %55 = load ptr, ptr %2, align 8, !tbaa !36
  %56 = getelementptr inbounds nuw %struct.pmix_server_req_t, ptr %55, i32 0, i32 33
  call void @PMIx_Data_buffer_construct(ptr noundef %56)
  %57 = load i32, ptr getelementptr inbounds nuw (%struct.pmix_server_globals_t, ptr @prte_pmix_server_globals, i32 0, i32 5), align 8, !tbaa !210
  %58 = load ptr, ptr %2, align 8, !tbaa !36
  %59 = getelementptr inbounds nuw %struct.pmix_server_req_t, ptr %58, i32 0, i32 12
  store i32 %57, ptr %59, align 8, !tbaa !211
  %60 = load ptr, ptr %2, align 8, !tbaa !36
  %61 = getelementptr inbounds nuw %struct.pmix_server_req_t, ptr %60, i32 0, i32 34
  store ptr null, ptr %61, align 8, !tbaa !212
  %62 = load ptr, ptr %2, align 8, !tbaa !36
  %63 = getelementptr inbounds nuw %struct.pmix_server_req_t, ptr %62, i32 0, i32 35
  store ptr null, ptr %63, align 8, !tbaa !154
  %64 = load ptr, ptr %2, align 8, !tbaa !36
  %65 = getelementptr inbounds nuw %struct.pmix_server_req_t, ptr %64, i32 0, i32 36
  store ptr null, ptr %65, align 8, !tbaa !213
  %66 = load ptr, ptr %2, align 8, !tbaa !36
  %67 = getelementptr inbounds nuw %struct.pmix_server_req_t, ptr %66, i32 0, i32 37
  store ptr null, ptr %67, align 8, !tbaa !214
  %68 = load ptr, ptr %2, align 8, !tbaa !36
  %69 = getelementptr inbounds nuw %struct.pmix_server_req_t, ptr %68, i32 0, i32 38
  store ptr null, ptr %69, align 8, !tbaa !215
  %70 = load ptr, ptr %2, align 8, !tbaa !36
  %71 = getelementptr inbounds nuw %struct.pmix_server_req_t, ptr %70, i32 0, i32 39
  store ptr null, ptr %71, align 8, !tbaa !216
  %72 = load ptr, ptr %2, align 8, !tbaa !36
  %73 = getelementptr inbounds nuw %struct.pmix_server_req_t, ptr %72, i32 0, i32 40
  store ptr null, ptr %73, align 8, !tbaa !217
  %74 = load ptr, ptr %2, align 8, !tbaa !36
  %75 = getelementptr inbounds nuw %struct.pmix_server_req_t, ptr %74, i32 0, i32 41
  store ptr null, ptr %75, align 8, !tbaa !155
  %76 = load ptr, ptr %2, align 8, !tbaa !36
  %77 = getelementptr inbounds nuw %struct.pmix_server_req_t, ptr %76, i32 0, i32 42
  store ptr null, ptr %77, align 8, !tbaa !218
  ret void
}