; Function Attrs: nounwind uwtable
define internal void @rqcon(ptr noundef initializes((248, 249), (384, 387), (392, 416), (428, 453), (456, 460), (464, 497), (500, 1020), (1280, 1288)) %0) #0 {
  %2 = getelementptr inbounds nuw i8, ptr %0, i64 248
  store i8 0, ptr %2, align 8, !tbaa !46
  %3 = getelementptr inbounds nuw i8, ptr %0, i64 384
  store i8 0, ptr %3, align 8, !tbaa !49
  %4 = getelementptr inbounds nuw i8, ptr %0, i64 385
  store i8 0, ptr %4, align 1, !tbaa !50
  %5 = getelementptr inbounds nuw i8, ptr %0, i64 386
  store i8 0, ptr %5, align 2, !tbaa !160
  %6 = getelementptr inbounds nuw i8, ptr %0, i64 392
  %7 = getelementptr inbounds nuw i8, ptr %0, i64 436
  tail call void @llvm.memset.p0.i64(ptr noundef nonnull align 8 dereferenceable(24) %6, i8 0, i64 24, i1 false)
  store i8 1, ptr %7, align 4, !tbaa !161
  %8 = getelementptr inbounds nuw i8, ptr %0, i64 437
  store i8 0, ptr %8, align 1, !tbaa !162
  %9 = getelementptr inbounds nuw i8, ptr %0, i64 438
  store i8 0, ptr %9, align 2, !tbaa !163
  %10 = getelementptr inbounds nuw i8, ptr %0, i64 439
  store i8 0, ptr %10, align 1, !tbaa !150
  %11 = getelementptr inbounds nuw i8, ptr %0, i64 428
  store i32 -1, ptr %11, align 4, !tbaa !115
  %12 = getelementptr inbounds nuw i8, ptr %0, i64 432
  store i32 -1, ptr %12, align 8, !tbaa !114
  %13 = getelementptr inbounds nuw i8, ptr %0, i64 440
  %14 = getelementptr inbounds nuw i8, ptr %0, i64 456
  tail call void @llvm.memset.p0.i64(ptr noundef nonnull align 8 dereferenceable(13) %13, i8 0, i64 13, i1 false)
  store i32 -1, ptr %14, align 8, !tbaa !164
  %15 = getelementptr inbounds nuw i8, ptr %0, i64 464
  %16 = getelementptr inbounds nuw i8, ptr %0, i64 496
  tail call void @llvm.memset.p0.i64(ptr noundef nonnull align 8 dereferenceable(32) %15, i8 0, i64 32, i1 false)
  store i8 4, ptr %16, align 8, !tbaa !165
  %17 = getelementptr inbounds nuw i8, ptr %0, i64 500
  tail call void @llvm.memcpy.p0.p0.i64(ptr noundef nonnull align 4 dereferenceable(260) %17, ptr noundef nonnull align 4 dereferenceable(260) @prte_name_invalid, i64 260, i1 false), !tbaa.struct !63
  %18 = getelementptr inbounds nuw i8, ptr %0, i64 760
  tail call void @llvm.memcpy.p0.p0.i64(ptr noundef nonnull align 8 dereferenceable(260) %18, ptr noundef nonnull align 4 dereferenceable(260) @prte_name_invalid, i64 260, i1 false), !tbaa.struct !63
  %19 = getelementptr inbounds nuw i8, ptr %0, i64 1280
  store ptr null, ptr %19, align 8, !tbaa !166
  %20 = getelementptr inbounds nuw i8, ptr %0, i64 1288
  tail call void @PMIx_Data_buffer_construct(ptr noundef nonnull %20) #17
  %21 = load i32, ptr getelementptr inbounds nuw (i8, ptr @prte_pmix_server_globals, i64 336), align 8, !tbaa !167
  %22 = getelementptr inbounds nuw i8, ptr %0, i64 424
  store i32 %21, ptr %22, align 8, !tbaa !168
  %23 = getelementptr inbounds nuw i8, ptr %0, i64 1328
  tail call void @llvm.memset.p0.i64(ptr noundef nonnull align 8 dereferenceable(72) %23, i8 0, i64 72, i1 false)
  ret void
}